target datalayout = "e-m:e-p270:32:32-p271:32:32-p272:64:64-i64:64-i128:128-f80:128-n8:16:32:64-S128"
target triple = "x86_64-pc-linux-gnu"

%struct.Tamarama = type { i32, i8, [27 x i8] }
%struct.NFA = type { i32, i32, i8, i8, i8, i8, %union.anon, i32, i32, i32, i32, i32, i32, i32, [20 x i8] }
%union.anon = type { i16 }
%struct.unaligned = type { i32 }
%struct.unaligned.0 = type { i16 }

; Function Attrs: alwaysinline nounwind uwtable
define internal zeroext i16 @unaligned_load_u16(ptr noundef %0) #2 {
  %2 = alloca ptr, align 8
  %3 = alloca ptr, align 8
  store ptr %0, ptr %2, align 8
  call void @llvm.lifetime.start.p0(i64 8, ptr %3) #5
  %4 = load ptr, ptr %2, align 8
  store ptr %4, ptr %3, align 8
  %5 = load ptr, ptr %3, align 8
  %6 = getelementptr inbounds nuw %struct.unaligned.0, ptr %5, i32 0, i32 0
  %7 = load i16, ptr %6, align 1
  call void @llvm.lifetime.end.p0(i64 8, ptr %3) #5
  ret i16 %7
}

; Function Attrs: alwaysinline nounwind uwtable
define internal i32 @unaligned_load_u32(ptr noundef %0) #2 {
  %2 = alloca ptr, align 8
  %3 = alloca ptr, align 8
  store ptr %0, ptr %2, align 8
  call void @llvm.lifetime.start.p0(i64 8, ptr %3) #5
  %4 = load ptr, ptr %2, align 8
  store ptr %4, ptr %3, align 8
  %5 = load ptr, ptr %3, align 8
  %6 = getelementptr inbounds nuw %struct.unaligned, ptr %5, i32 0, i32 0
  %7 = load i32, ptr %6, align 1
  call void @llvm.lifetime.end.p0(i64 8, ptr %3) #5
  ret i32 %7
}

; Function Attrs: alwaysinline nounwind uwtable
define internal i32 @getSubOffset(ptr noundef %0, i32 noundef %1) #2 {
  %3 = alloca ptr, align 8
  %4 = alloca i32, align 4
  %5 = alloca ptr, align 8
  store ptr %0, ptr %3, align 8
  store i32 %1, ptr %4, align 4
  br label %6

6:                                                ; preds = %2
  br label %7

7:                                                ; preds = %6
  call void @llvm.lifetime.start.p0(i64 8, ptr %5) #5
  %8 = load ptr, ptr %3, align 8
  %9 = getelementptr inbounds nuw i8, ptr %8, i64 32
  %10 = load ptr, ptr %3, align 8
  %11 = getelementptr inbounds nuw %struct.Tamarama, ptr %10, i32 0, i32 0
  %12 = load i32, ptr %11, align 32
  %13 = zext i32 %12 to i64
  %14 = mul i64 %13, 4
  %15 = getelementptr inbounds nuw i8, ptr %9, i64 %14
  store ptr %15, ptr %5, align 8
  %16 = load ptr, ptr %5, align 8
  %17 = load i32, ptr %4, align 4
  %18 = zext i32 %17 to i64
  %19 = getelementptr inbounds nuw i32, ptr %16, i64 %18
  %20 = load i32, ptr %19, align 4
  call void @llvm.lifetime.end.p0(i64 8, ptr %5) #5
  ret i32 %20
}

; Function Attrs: alwaysinline nounwind uwtable
define internal i32 @partial_load_u32(ptr noundef %0, i32 noundef %1) #2 {
  %3 = alloca i32, align 4
  %4 = alloca ptr, align 8
  %5 = alloca i32, align 4
  %6 = alloca i32, align 4
  %7 = alloca i32, align 4
  store ptr %0, ptr %4, align 8
  store i32 %1, ptr %5, align 4
  call void @llvm.lifetime.start.p0(i64 4, ptr %6) #5
  %8 = load i32, ptr %5, align 4
  switch i32 %8, label %35 [
    i32 4, label %9
    i32 3, label %13
    i32 2, label %25
    i32 1, label %30
    i32 0, label %35
  ]

9:                                                ; preds = %2
  %10 = load ptr, ptr %4, align 8
  %11 = call i32 @unaligned_load_u32(ptr noundef %10)
  store i32 %11, ptr %6, align 4
  %12 = load i32, ptr %6, align 4
  store i32 %12, ptr %3, align 4
  store i32 1, ptr %7, align 4
  br label %36

13:                                               ; preds = %2
  %14 = load ptr, ptr %4, align 8
  %15 = call zeroext i16 @unaligned_load_u16(ptr noundef %14)
  %16 = zext i16 %15 to i32
  store i32 %16, ptr %6, align 4
  %17 = load ptr, ptr %4, align 8
  %18 = getelementptr inbounds i8, ptr %17, i64 2
  %19 = load i8, ptr %18, align 1
  %20 = zext i8 %19 to i32
  %21 = shl i32 %20, 16
  %22 = load i32, ptr %6, align 4
  %23 = or i32 %22, %21
  store i32 %23, ptr %6, align 4
  %24 = load i32, ptr %6, align 4
  store i32 %24, ptr %3, align 4
  store i32 1, ptr %7, align 4
  br label %36

25:                                               ; preds = %2
  %26 = load ptr, ptr %4, align 8
  %27 = call zeroext i16 @unaligned_load_u16(ptr noundef %26)
  %28 = zext i16 %27 to i32
  store i32 %28, ptr %6, align 4
  %29 = load i32, ptr %6, align 4
  store i32 %29, ptr %3, align 4
  store i32 1, ptr %7, align 4
  br label %36

30:                                               ; preds = %2
  %31 = load ptr, ptr %4, align 8
  %32 = load i8, ptr %31, align 1
  %33 = zext i8 %32 to i32
  store i32 %33, ptr %6, align 4
  %34 = load i32, ptr %6, align 4
  store i32 %34, ptr %3, align 4
  store i32 1, ptr %7, align 4
  br label %36

35:                                               ; preds = %2, %2
  store i32 0, ptr %3, align 4
  store i32 1, ptr %7, align 4
  br label %36

36:                                               ; preds = %35, %30, %25, %13, %9
  call void @llvm.lifetime.end.p0(i64 4, ptr %6) #5
  %37 = load i32, ptr %3, align 4
  ret i32 %37
}

; Function Attrs: alwaysinline nounwind uwtable
define internal i32 @nfaAcceptsEod(ptr noundef %0) #2 {
  %2 = alloca ptr, align 8
  store ptr %0, ptr %2, align 8
  %3 = load ptr, ptr %2, align 8
  %4 = getelementptr inbounds nuw %struct.NFA, ptr %3, i32 0, i32 0
  %5 = load i32, ptr %4, align 64
  %6 = and i32 %5, 1
  ret i32 %6
}

; Function Attrs: nounwind uwtable
define internal ptr @getSubEngine(ptr noundef %0, i32 noundef %1) #0 {
  %3 = alloca ptr, align 8
  %4 = alloca i32, align 4
  %5 = alloca i32, align 4
  %6 = alloca ptr, align 8
  store ptr %0, ptr %3, align 8
  store i32 %1, ptr %4, align 4
  call void @llvm.lifetime.start.p0(i64 4, ptr %5) #5
  %7 = load ptr, ptr %3, align 8
  %8 = load i32, ptr %4, align 4
  %9 = call i32 @getSubOffset(ptr noundef %7, i32 noundef %8)
  store i32 %9, ptr %5, align 4
  br label %10

10:                                               ; preds = %2
  br label %11

11:                                               ; preds = %10
  br label %12

12:                                               ; preds = %11
  call void @llvm.lifetime.start.p0(i64 8, ptr %6) #5
  %13 = load ptr, ptr %3, align 8
  store ptr %13, ptr %6, align 8
  %14 = load ptr, ptr %6, align 8
  %15 = load i32, ptr %5, align 4
  %16 = zext i32 %15 to i64
  %17 = getelementptr inbounds nuw i8, ptr %14, i64 %16
  call void @llvm.lifetime.end.p0(i64 8, ptr %6) #5
  call void @llvm.lifetime.end.p0(i64 4, ptr %5) #5
  ret ptr %17
}

; Function Attrs: nounwind uwtable
define internal i32 @loadActiveIdx(ptr noundef %0, i32 noundef %1) #0 {
  %3 = alloca ptr, align 8
  %4 = alloca i32, align 4
  store ptr %0, ptr %3, align 8
  store i32 %1, ptr %4, align 4
  %5 = load ptr, ptr %3, align 8
  %6 = load i32, ptr %4, align 4
  %7 = call i32 @partial_load_u32(ptr noundef %5, i32 noundef %6)
  ret i32 %7
}

; Function Attrs: nounwind uwtable
define hidden signext i8 @nfaExecTamarama_testEOD(ptr noundef %0, ptr noundef %1, ptr noundef %2, i64 noundef %3, ptr noundef %4, ptr noundef %5) #0 {
  %7 = alloca i8, align 1
  %8 = alloca ptr, align 8
  %9 = alloca ptr, align 8
  %10 = alloca ptr, align 8
  %11 = alloca i64, align 8
  %12 = alloca ptr, align 8
  %13 = alloca ptr, align 8
  %14 = alloca ptr, align 8
  %15 = alloca i32, align 4
  %16 = alloca i32, align 4
  %17 = alloca ptr, align 8
  %18 = alloca ptr, align 8
  store ptr %0, ptr %8, align 8
  store ptr %1, ptr %9, align 8
  store ptr %2, ptr %10, align 8
  store i64 %3, ptr %11, align 8
  store ptr %4, ptr %12, align 8
  store ptr %5, ptr %13, align 8
  call void @llvm.lifetime.start.p0(i64 8, ptr %14) #5
  %19 = load ptr, ptr %8, align 8
  %20 = getelementptr inbounds nuw i8, ptr %19, i64 64
  store ptr %20, ptr %14, align 8
  call void @llvm.lifetime.start.p0(i64 4, ptr %15) #5
  %21 = load ptr, ptr %10, align 8
  %22 = load ptr, ptr %14, align 8
  %23 = getelementptr inbounds nuw %struct.Tamarama, ptr %22, i32 0, i32 1
  %24 = load i8, ptr %23, align 4
  %25 = zext i8 %24 to i32
  %26 = call i32 @loadActiveIdx(ptr noundef %21, i32 noundef %25)
  store i32 %26, ptr %15, align 4
  %27 = load i32, ptr %15, align 4
  %28 = load ptr, ptr %14, align 8
  %29 = getelementptr inbounds nuw %struct.Tamarama, ptr %28, i32 0, i32 0
  %30 = load i32, ptr %29, align 32
  %31 = icmp eq i32 %27, %30
  br i1 %31, label %32, label %33

32:                                               ; preds = %6
  store i8 1, ptr %7, align 1
  store i32 1, ptr %16, align 4
  br label %57

33:                                               ; preds = %6
  call void @llvm.lifetime.start.p0(i64 8, ptr %17) #5
  %34 = load ptr, ptr %14, align 8
  %35 = load i32, ptr %15, align 4
  %36 = call ptr @getSubEngine(ptr noundef %34, i32 noundef %35)
  store ptr %36, ptr %17, align 8
  %37 = load ptr, ptr %17, align 8
  %38 = call i32 @nfaAcceptsEod(ptr noundef %37)
  %39 = icmp ne i32 %38, 0
  br i1 %39, label %40, label %55

40:                                               ; preds = %33
  call void @llvm.lifetime.start.p0(i64 8, ptr %18) #5
  %41 = load ptr, ptr %10, align 8
  %42 = load ptr, ptr %14, align 8
  %43 = getelementptr inbounds nuw %struct.Tamarama, ptr %42, i32 0, i32 1
  %44 = load i8, ptr %43, align 4
  %45 = zext i8 %44 to i32
  %46 = sext i32 %45 to i64
  %47 = getelementptr inbounds i8, ptr %41, i64 %46
  store ptr %47, ptr %18, align 8
  %48 = load ptr, ptr %17, align 8
  %49 = load ptr, ptr %9, align 8
  %50 = load ptr, ptr %18, align 8
  %51 = load i64, ptr %11, align 8
  %52 = load ptr, ptr %12, align 8
  %53 = load ptr, ptr %13, align 8
  %54 = call signext i8 @nfaCheckFinalState(ptr noundef %48, ptr noundef %49, ptr noundef %50, i64 noundef %51, ptr noundef %52, ptr noundef %53)
  store i8 %54, ptr %7, align 1
  store i32 1, ptr %16, align 4
  call void @llvm.lifetime.end.p0(i64 8, ptr %18) #5
  br label %56

55:                                               ; preds = %33
  store i8 1, ptr %7, align 1
  store i32 1, ptr %16, align 4
  br label %56

56:                                               ; preds = %55, %40
  call void @llvm.lifetime.end.p0(i64 8, ptr %17) #5
  br label %57

57:                                               ; preds = %56, %32
  call void @llvm.lifetime.end.p0(i64 4, ptr %15) #5
  call void @llvm.lifetime.end.p0(i64 8, ptr %14) #5
  %58 = load i8, ptr %7, align 1
  ret i8 %58
}