; Function Attrs: nounwind uwtable
define hidden signext i8 @nfaExecTamarama_testEOD(ptr noundef %0, ptr noundef %1, ptr noundef %2, i64 noundef %3, ptr noundef %4, ptr noundef %5) local_unnamed_addr #0 {
  %7 = getelementptr inbounds nuw i8, ptr %0, i64 64
  %8 = getelementptr inbounds nuw i8, ptr %0, i64 68
  %9 = load i8, ptr %8, align 4
  switch i8 %9, label %loadActiveIdx.exit [
    i8 4, label %10
    i8 3, label %12
    i8 2, label %20
    i8 1, label %23
  ]

10:                                               ; preds = %6
  %11 = load i32, ptr %2, align 1
  br label %loadActiveIdx.exit

12:                                               ; preds = %6
  %13 = load i16, ptr %2, align 1
  %14 = zext i16 %13 to i32
  %15 = getelementptr inbounds nuw i8, ptr %2, i64 2
  %16 = load i8, ptr %15, align 1
  %17 = zext i8 %16 to i32
  %18 = shl nuw nsw i32 %17, 16
  %19 = or disjoint i32 %18, %14
  br label %loadActiveIdx.exit

20:                                               ; preds = %6
  %21 = load i16, ptr %2, align 1
  %22 = zext i16 %21 to i32
  br label %loadActiveIdx.exit

23:                                               ; preds = %6
  %24 = load i8, ptr %2, align 1
  %25 = zext i8 %24 to i32
  br label %loadActiveIdx.exit

loadActiveIdx.exit:                               ; preds = %6, %10, %12, %20, %23
  %.0.i.i = phi i32 [ %25, %23 ], [ %22, %20 ], [ %19, %12 ], [ %11, %10 ], [ 0, %6 ]
  %26 = load i32, ptr %7, align 32
  %27 = icmp eq i32 %.0.i.i, %26
  br i1 %27, label %44, label %28

28:                                               ; preds = %loadActiveIdx.exit
  %29 = getelementptr inbounds nuw i8, ptr %0, i64 96
  %30 = zext i32 %26 to i64
  %31 = shl nuw nsw i64 %30, 2
  %32 = getelementptr inbounds nuw i8, ptr %29, i64 %31
  %33 = zext i32 %.0.i.i to i64
  %34 = getelementptr inbounds nuw i32, ptr %32, i64 %33
  %35 = load i32, ptr %34, align 4
  %36 = zext i32 %35 to i64
  %37 = getelementptr inbounds nuw i8, ptr %7, i64 %36
  %38 = load i32, ptr %37, align 64
  %39 = and i32 %38, 1
  %.not = icmp eq i32 %39, 0
  br i1 %.not, label %44, label %40

40:                                               ; preds = %28
  %41 = zext i8 %9 to i64
  %42 = getelementptr inbounds nuw i8, ptr %2, i64 %41
  %43 = tail call signext i8 @nfaCheckFinalState(ptr noundef nonnull %37, ptr noundef %1, ptr noundef %42, i64 noundef %3, ptr noundef %4, ptr noundef %5) #7
  br label %44

44:                                               ; preds = %40, %28, %loadActiveIdx.exit
  %.0 = phi i8 [ 1, %loadActiveIdx.exit ], [ %43, %40 ], [ 1, %28 ]
  ret i8 %.0
}